; Function Attrs: nofree norecurse nosync nounwind memory(readwrite, inaccessiblemem: none) uwtable
define void @Aig_ManCleanNext(ptr noundef readonly captures(none) %0) local_unnamed_addr #0 {
  %2 = getelementptr inbounds nuw i8, ptr %0, i64 32
  %3 = load ptr, ptr %2, align 8, !tbaa !21
  %4 = getelementptr i8, ptr %3, i64 4
  %.val8 = load i32, ptr %4, align 4, !tbaa !22
  %5 = icmp sgt i32 %.val8, 0
  br i1 %5, label %.lr.ph, label %.critedge

.lr.ph:                                           ; preds = %1, %12
  %6 = phi ptr [ %13, %12 ], [ %3, %1 ]
  %indvars.iv = phi i64 [ %indvars.iv.next, %12 ], [ 0, %1 ]
  %7 = getelementptr i8, ptr %6, i64 8
  %.val7 = load ptr, ptr %7, align 8, !tbaa !24
  %8 = getelementptr inbounds nuw ptr, ptr %.val7, i64 %indvars.iv
  %9 = load ptr, ptr %8, align 8, !tbaa !25
  %10 = icmp eq ptr %9, null
  br i1 %10, label %12, label %11

11:                                               ; preds = %.lr.ph
  store ptr null, ptr %9, align 8, !tbaa !26
  %.pre = load ptr, ptr %2, align 8, !tbaa !21
  br label %12

12:                                               ; preds = %11, %.lr.ph
  %13 = phi ptr [ %.pre, %11 ], [ %6, %.lr.ph ]
  %indvars.iv.next = add nuw nsw i64 %indvars.iv, 1
  %14 = getelementptr i8, ptr %13, i64 4
  %.val = load i32, ptr %14, align 4, !tbaa !22
  %15 = sext i32 %.val to i64
  %16 = icmp slt i64 %indvars.iv.next, %15
  br i1 %16, label %.lr.ph, label %.critedge, !llvm.loop !40

.critedge:                                        ; preds = %12, %1
  ret void
}